; Function Attrs: mustprogress uwtable
define noundef zeroext i1 @_ZNK24json11_internal_lightgbm4JsonltERKS0_(ptr nocapture noundef nonnull readonly align 8 dereferenceable(16) %0, ptr nocapture noundef nonnull readonly align 8 dereferenceable(16) %1) local_unnamed_addr #1 align 2 {
  %3 = load ptr, ptr %0, align 8
  %4 = load ptr, ptr %1, align 8
  %5 = icmp eq ptr %3, %4
  br i1 %5, label %30, label %6

6:                                                ; preds = %2
  %7 = load ptr, ptr %3, align 8
  %8 = load ptr, ptr %7, align 8
  %9 = tail call noundef i32 %8(ptr noundef nonnull align 8 dereferenceable(8) %3)
  %10 = load ptr, ptr %1, align 8
  %11 = load ptr, ptr %10, align 8
  %12 = load ptr, ptr %11, align 8
  %13 = tail call noundef i32 %12(ptr noundef nonnull align 8 dereferenceable(8) %10)
  %.not = icmp eq i32 %9, %13
  %14 = load ptr, ptr %0, align 8
  br i1 %.not, label %24, label %15

15:                                               ; preds = %6
  %16 = load ptr, ptr %14, align 8
  %17 = load ptr, ptr %16, align 8
  %18 = tail call noundef i32 %17(ptr noundef nonnull align 8 dereferenceable(8) %14)
  %19 = load ptr, ptr %1, align 8
  %20 = load ptr, ptr %19, align 8
  %21 = load ptr, ptr %20, align 8
  %22 = tail call noundef i32 %21(ptr noundef nonnull align 8 dereferenceable(8) %19)
  %23 = icmp slt i32 %18, %22
  br label %30

24:                                               ; preds = %6
  %25 = load ptr, ptr %1, align 8
  %26 = load ptr, ptr %14, align 8
  %27 = getelementptr inbounds i8, ptr %26, i64 16
  %28 = load ptr, ptr %27, align 8
  %29 = tail call noundef zeroext i1 %28(ptr noundef nonnull align 8 dereferenceable(8) %14, ptr noundef %25)
  br label %30

30:                                               ; preds = %2, %24, %15
  %.0 = phi i1 [ %23, %15 ], [ %29, %24 ], [ false, %2 ]
  ret i1 %.0
}